target datalayout = "e-m:e-p270:32:32-p271:32:32-p272:64:64-i64:64-i128:128-f80:128-n8:16:32:64-S128"
target triple = "x86_64-unknown-linux-gnu"

%"class.node::(anonymous namespace)::ExternString" = type { %"class.v8::String::ExternalOneByteStringResource", ptr, ptr, i64 }
%"class.v8::String::ExternalOneByteStringResource" = type { %"class.v8::String::ExternalStringResourceBase", ptr }
%"class.v8::String::ExternalStringResourceBase" = type { ptr }

; Function Attrs: mustprogress nounwind uwtable
define linkonce_odr dso_local void @_ZN2v86String26ExternalStringResourceBaseD2Ev(ptr noundef nonnull align 8 dereferenceable(8) %this) unnamed_addr #4 comdat align 2 {
entry:
  %this.addr = alloca ptr, align 8
  store ptr %this, ptr %this.addr, align 8
  ret void
}

; Function Attrs: mustprogress nounwind uwtable
define linkonce_odr dso_local void @_ZN2v86String29ExternalOneByteStringResourceD2Ev(ptr noundef nonnull align 8 dereferenceable(16) %this) unnamed_addr #4 comdat align 2 {
entry:
  %this.addr = alloca ptr, align 8
  store ptr %this, ptr %this.addr, align 8
  %this1 = load ptr, ptr %this.addr, align 8
  call void @_ZN2v86String26ExternalStringResourceBaseD2Ev(ptr noundef nonnull align 8 dereferenceable(8) %this1) #3
  ret void
}

; Function Attrs: mustprogress nounwind uwtable
define internal noundef i64 @_ZNK4node12_GLOBAL__N_112ExternStringIN2v86String29ExternalOneByteStringResourceEcE11byte_lengthEv(ptr noundef nonnull align 8 dereferenceable(40) %this) #4 align 2 {
entry:
  %this.addr = alloca ptr, align 8
  store ptr %this, ptr %this.addr, align 8
  %this1 = load ptr, ptr %this.addr, align 8
  %vtable = load ptr, ptr %this1, align 8
  %vfn = getelementptr inbounds ptr, ptr %vtable, i64 7
  %0 = load ptr, ptr %vfn, align 8
  %call = call noundef i64 %0(ptr noundef nonnull align 8 dereferenceable(40) %this1)
  %mul = mul i64 %call, 1
  ret i64 %mul
}

; Function Attrs: mustprogress nounwind uwtable
define internal noundef ptr @_ZNK4node12_GLOBAL__N_112ExternStringIN2v86String29ExternalOneByteStringResourceEcE7isolateEv(ptr noundef nonnull align 8 dereferenceable(40) %this) #4 align 2 {
entry:
  %this.addr = alloca ptr, align 8
  store ptr %this, ptr %this.addr, align 8
  %this1 = load ptr, ptr %this.addr, align 8
  %isolate_ = getelementptr inbounds %"class.node::(anonymous namespace)::ExternString", ptr %this1, i32 0, i32 1
  %0 = load ptr, ptr %isolate_, align 8
  ret ptr %0
}

; Function Attrs: mustprogress nounwind uwtable
define internal void @_ZN4node12_GLOBAL__N_112ExternStringIN2v86String29ExternalOneByteStringResourceEcED2Ev(ptr noundef nonnull align 8 dereferenceable(40) %this) unnamed_addr #4 align 2 {
entry:
  %this.addr = alloca ptr, align 8
  store ptr %this, ptr %this.addr, align 8
  %this1 = load ptr, ptr %this.addr, align 8
  store ptr getelementptr inbounds ({ [10 x ptr] }, ptr @_ZTVN4node12_GLOBAL__N_112ExternStringIN2v86String29ExternalOneByteStringResourceEcEE, i32 0, i32 0, i32 2), ptr %this1, align 8
  %data_ = getelementptr inbounds %"class.node::(anonymous namespace)::ExternString", ptr %this1, i32 0, i32 2
  %0 = load ptr, ptr %data_, align 8
  call void @free(ptr noundef %0) #3
  %call = call noundef ptr @_ZNK4node12_GLOBAL__N_112ExternStringIN2v86String29ExternalOneByteStringResourceEcE7isolateEv(ptr noundef nonnull align 8 dereferenceable(40) %this1)
  %call2 = call noundef i64 @_ZNK4node12_GLOBAL__N_112ExternStringIN2v86String29ExternalOneByteStringResourceEcE11byte_lengthEv(ptr noundef nonnull align 8 dereferenceable(40) %this1)
  %sub = sub nsw i64 0, %call2
  %call3 = call noundef i64 @_ZN2v87Isolate37AdjustAmountOfExternalAllocatedMemoryEl(ptr noundef nonnull align 1 dereferenceable(1) %call, i64 noundef %sub)
  call void @_ZN2v86String29ExternalOneByteStringResourceD2Ev(ptr noundef nonnull align 8 dereferenceable(16) %this1) #3
  ret void
}

; Function Attrs: mustprogress nounwind uwtable
define internal void @_ZN4node12_GLOBAL__N_112ExternStringIN2v86String29ExternalOneByteStringResourceEcED0Ev(ptr noundef nonnull align 8 dereferenceable(40) %this) unnamed_addr #4 align 2 {
entry:
  %this.addr = alloca ptr, align 8
  store ptr %this, ptr %this.addr, align 8
  %this1 = load ptr, ptr %this.addr, align 8
  call void @_ZN4node12_GLOBAL__N_112ExternStringIN2v86String29ExternalOneByteStringResourceEcED2Ev(ptr noundef nonnull align 8 dereferenceable(40) %this1) #3
  call void @_ZdlPv(ptr noundef %this1) #22
  ret void
}