; Function Attrs: mustprogress nounwind uwtable
define internal void @_ZN4node12_GLOBAL__N_112ExternStringIN2v86String29ExternalOneByteStringResourceEcED0Ev(ptr noundef nonnull align 8 dereferenceable(40) %this) unnamed_addr #3 align 2 {
entry:
  store ptr getelementptr inbounds ({ [10 x ptr] }, ptr @_ZTVN4node12_GLOBAL__N_112ExternStringIN2v86String29ExternalOneByteStringResourceEcEE, i64 0, i32 0, i64 2), ptr %this, align 8
  %data_.i = getelementptr inbounds i8, ptr %this, i64 24
  %0 = load ptr, ptr %data_.i, align 8
  tail call void @free(ptr noundef %0) #19
  %1 = getelementptr inbounds i8, ptr %this, i64 16
  %this.val.i = load ptr, ptr %1, align 8
  %vtable.i.i = load ptr, ptr %this, align 8
  %vfn.i.i = getelementptr inbounds i8, ptr %vtable.i.i, i64 56
  %2 = load ptr, ptr %vfn.i.i, align 8
  %call.i.i = tail call noundef i64 %2(ptr noundef nonnull align 8 dereferenceable(40) %this) #19
  %sub.i = sub nsw i64 0, %call.i.i
  %call3.i = tail call noundef i64 @_ZN2v87Isolate37AdjustAmountOfExternalAllocatedMemoryEl(ptr noundef nonnull align 1 dereferenceable(1) %this.val.i, i64 noundef %sub.i) #19
  tail call void @_ZdlPv(ptr noundef nonnull %this) #23
  ret void
}